
elf/test_basic_mul.elf:     file format elf32-littleriscv


Disassembly of section .text:

00000000 <_start>:
   0:	80000a37          	lui	s4,0x80000
   4:	00300093          	addi	ra,zero,3
   8:	00500113          	addi	sp,zero,5
   c:	ff900193          	addi	gp,zero,-7
  10:	00900213          	addi	tp,zero,9
  14:	800002b7          	lui	t0,0x80000
  18:	fff28293          	addi	t0,t0,-1 # 7fffffff <end+0x7fffff27>
  1c:	fff00313          	addi	t1,zero,-1
  20:	02208533          	mul	a0,ra,sp
  24:	024185b3          	mul	a1,gp,tp
  28:	02228633          	mul	a2,t0,sp
  2c:	024196b3          	mulh	a3,gp,tp
  30:	02233733          	mulhu	a4,t1,sp
  34:	025287b3          	mul	a5,t0,t0
  38:	02410833          	mul	a6,sp,tp
  3c:	000808b3          	add	a7,a6,zero
  40:	011a2023          	sw	a7,0(s4) # 80000000 <_ebss>
  44:	000a2903          	lw	s2,0(s4)
  48:	00c00393          	addi	t2,zero,12
  4c:	ffd00413          	addi	s0,zero,-3
  50:	028389b3          	mul	s3,t2,s0
  54:	02839ab3          	mulh	s5,t2,s0
  58:	02150c33          	mul	s8,a0,ra
  5c:	002c0cb3          	add	s9,s8,sp
  60:	023c8d33          	mul	s10,s9,gp
  64:	00000f13          	addi	t5,zero,0
  68:	00f00e13          	addi	t3,zero,15
  6c:	07c51263          	bne	a0,t3,d0 <fail>
  70:	fc100e13          	addi	t3,zero,-63
  74:	05c59e63          	bne	a1,t3,d0 <fail>
  78:	80000e37          	lui	t3,0x80000
  7c:	ffbe0e13          	addi	t3,t3,-5 # 7ffffffb <end+0x7fffff23>
  80:	05c61863          	bne	a2,t3,d0 <fail>
  84:	fff00e13          	addi	t3,zero,-1
  88:	05c69463          	bne	a3,t3,d0 <fail>
  8c:	00400e13          	addi	t3,zero,4
  90:	05c71063          	bne	a4,t3,d0 <fail>
  94:	00100e13          	addi	t3,zero,1
  98:	03c79c63          	bne	a5,t3,d0 <fail>
  9c:	02d00e13          	addi	t3,zero,45
  a0:	03c91863          	bne	s2,t3,d0 <fail>
  a4:	fdc00e13          	addi	t3,zero,-36
  a8:	03c99463          	bne	s3,t3,d0 <fail>
  ac:	fff00e13          	addi	t3,zero,-1
  b0:	03ca9063          	bne	s5,t3,d0 <fail>
  b4:	02d00e13          	addi	t3,zero,45
  b8:	01cc1c63          	bne	s8,t3,d0 <fail>
  bc:	03200e13          	addi	t3,zero,50
  c0:	01cc9863          	bne	s9,t3,d0 <fail>
  c4:	ea200e13          	addi	t3,zero,-350
  c8:	01cd1463          	bne	s10,t3,d0 <fail>
  cc:	00c0006f          	jal	zero,d8 <end>

000000d0 <fail>:
  d0:	001f0f13          	addi	t5,t5,1
  d4:	0040006f          	jal	zero,d8 <end>
