
elf/test_c_short_loop.elf:     file format elf32-littleriscv


Disassembly of section .text:

00000000 <_start>:
   0:	30001073          	csrrw	zero,mstatus,zero
   4:	30401073          	csrrw	zero,mie,zero
   8:	80004137          	lui	sp,0x80004
   c:	00000413          	addi	s0,zero,0
  10:	008000ef          	jal	ra,18 <main>
  14:	0000006f          	jal	zero,14 <_start+0x14>

00000018 <main>:
  18:	fe010113          	addi	sp,sp,-32 # 80003fe0 <_ebss+0x3fe0>
  1c:	00112e23          	sw	ra,28(sp)
  20:	00812c23          	sw	s0,24(sp)
  24:	02010413          	addi	s0,sp,32
  28:	fe042623          	sw	zero,-20(s0)
  2c:	00100793          	addi	a5,zero,1
  30:	fef42423          	sw	a5,-24(s0)
  34:	0200006f          	jal	zero,54 <main+0x3c>
  38:	fec42703          	lw	a4,-20(s0)
  3c:	fe842783          	lw	a5,-24(s0)
  40:	00f707b3          	add	a5,a4,a5
  44:	fef42623          	sw	a5,-20(s0)
  48:	fe842783          	lw	a5,-24(s0)
  4c:	00178793          	addi	a5,a5,1
  50:	fef42423          	sw	a5,-24(s0)
  54:	fe842703          	lw	a4,-24(s0)
  58:	06400793          	addi	a5,zero,100
  5c:	fce7dee3          	bge	a5,a4,38 <main+0x20>
  60:	00000793          	addi	a5,zero,0
  64:	00078513          	addi	a0,a5,0
  68:	01c12083          	lw	ra,28(sp)
  6c:	01812403          	lw	s0,24(sp)
  70:	02010113          	addi	sp,sp,32
  74:	00008067          	jalr	zero,0(ra)
